; Function Attrs: mustprogress nofree norecurse nosync nounwind willreturn memory(read, inaccessiblemem: none) uwtable
define internal fastcc noundef zeroext i1 @_ZL11HasEnumTypePN5clang4ExprE(ptr nocapture noundef readonly %0) unnamed_addr #12 {
  %2 = load i8, ptr %0, align 8
  %.not10 = icmp eq i8 %2, 79
  br i1 %.not10, label %.lr.ph, label %._crit_edge

.lr.ph:                                           ; preds = %1, %6
  %.011 = phi ptr [ %8, %6 ], [ %0, %1 ]
  %3 = load i32, ptr %.011, align 8
  %4 = lshr i32 %3, 18
  %5 = and i32 %4, 127
  switch i32 %5, label %._crit_edge [
    i32 27, label %6
    i32 5, label %6
  ]

6:                                                ; preds = %.lr.ph, %.lr.ph
  %7 = getelementptr inbounds nuw i8, ptr %.011, i64 16
  %8 = load ptr, ptr %7, align 8
  %9 = load i8, ptr %8, align 8
  %.not = icmp eq i8 %9, 79
  br i1 %.not, label %.lr.ph, label %._crit_edge, !llvm.loop !594

._crit_edge:                                      ; preds = %6, %.lr.ph, %1
  %.0.lcssa = phi ptr [ %0, %1 ], [ %.011, %.lr.ph ], [ %8, %6 ]
  %10 = getelementptr inbounds nuw i8, ptr %.0.lcssa, i64 8
  %.sroa.0.0.copyload.i = load i64, ptr %10, align 8
  %11 = and i64 %.sroa.0.0.copyload.i, -16
  %12 = inttoptr i64 %11 to ptr
  %13 = load ptr, ptr %12, align 16
  %14 = getelementptr inbounds nuw i8, ptr %13, i64 8
  %.sroa.0.0.copyload.i.i.i.i = load i64, ptr %14, align 8
  %15 = and i64 %.sroa.0.0.copyload.i.i.i.i, -16
  %16 = inttoptr i64 %15 to ptr
  %17 = load ptr, ptr %16, align 16
  %18 = getelementptr inbounds nuw i8, ptr %17, i64 16
  %19 = load i8, ptr %18, align 16
  %20 = icmp eq i8 %19, 46
  ret i1 %20
}